; ModuleID = '19/2634.c'
source_filename = "19/2634.c"
target datalayout = "e-m:e-p270:32:32-p271:32:32-p272:64:64-i64:64-f80:128-n8:16:32:64-S128"
target triple = "x86_64-pc-linux-gnu"

@.str = private unnamed_addr constant [3 x i8] c"%s\00", align 1
@.str.1 = private unnamed_addr constant [4 x i8] c" %s\00", align 1

; Function Attrs: noinline nounwind uwtable
define dso_local i32 @main() #0 {
  %1 = alloca i32, align 4
  %2 = alloca [600 x i8], align 16
  %3 = alloca [30 x [30 x i8]], align 16
  %4 = alloca [30 x i8], align 16
  %5 = alloca [30 x i8], align 16
  %6 = alloca i32, align 4
  %7 = alloca i32, align 4
  %8 = alloca i32, align 4
  %9 = alloca i32, align 4
  %10 = alloca i32, align 4
  %11 = alloca i32, align 4
  store i32 0, i32* %1, align 4
  %12 = getelementptr inbounds [600 x i8], [600 x i8]* %2, i64 0, i64 0
  %13 = call i32 (i8*, ...) bitcast (i32 (...)* @gets to i32 (i8*, ...)*)(i8* %12)
  %14 = getelementptr inbounds [30 x i8], [30 x i8]* %4, i64 0, i64 0
  %15 = call i32 (i8*, ...) bitcast (i32 (...)* @gets to i32 (i8*, ...)*)(i8* %14)
  %16 = getelementptr inbounds [30 x i8], [30 x i8]* %5, i64 0, i64 0
  %17 = call i32 (i8*, ...) bitcast (i32 (...)* @gets to i32 (i8*, ...)*)(i8* %16)
  %18 = getelementptr inbounds [600 x i8], [600 x i8]* %2, i64 0, i64 0
  %19 = call i64 @strlen(i8* %18) #4
  %20 = trunc i64 %19 to i32
  store i32 %20, i32* %6, align 4
  store i32 0, i32* %7, align 4
  store i32 0, i32* %8, align 4
  store i32 0, i32* %9, align 4
  br label %21

21:                                               ; preds = %63, %0
  %22 = load i32, i32* %9, align 4
  %23 = load i32, i32* %6, align 4
  %24 = add nsw i32 %23, 1
  %25 = icmp slt i32 %22, %24
  br i1 %25, label %26, label %66

26:                                               ; preds = %21
  %27 = load i32, i32* %9, align 4
  %28 = sext i32 %27 to i64
  %29 = getelementptr inbounds [600 x i8], [600 x i8]* %2, i64 0, i64 %28
  %30 = load i8, i8* %29, align 1
  %31 = sext i8 %30 to i32
  %32 = icmp ne i32 %31, 32
  br i1 %32, label %33, label %53

33:                                               ; preds = %26
  %34 = load i32, i32* %9, align 4
  %35 = sext i32 %34 to i64
  %36 = getelementptr inbounds [600 x i8], [600 x i8]* %2, i64 0, i64 %35
  %37 = load i8, i8* %36, align 1
  %38 = sext i8 %37 to i32
  %39 = icmp ne i32 %38, 10
  br i1 %39, label %40, label %53

40:                                               ; preds = %33
  %41 = load i32, i32* %9, align 4
  %42 = sext i32 %41 to i64
  %43 = getelementptr inbounds [600 x i8], [600 x i8]* %2, i64 0, i64 %42
  %44 = load i8, i8* %43, align 1
  %45 = load i32, i32* %7, align 4
  %46 = sext i32 %45 to i64
  %47 = getelementptr inbounds [30 x [30 x i8]], [30 x [30 x i8]]* %3, i64 0, i64 %46
  %48 = load i32, i32* %8, align 4
  %49 = sext i32 %48 to i64
  %50 = getelementptr inbounds [30 x i8], [30 x i8]* %47, i64 0, i64 %49
  store i8 %44, i8* %50, align 1
  %51 = load i32, i32* %8, align 4
  %52 = add nsw i32 %51, 1
  store i32 %52, i32* %8, align 4
  br label %62

53:                                               ; preds = %33, %26
  %54 = load i32, i32* %7, align 4
  %55 = sext i32 %54 to i64
  %56 = getelementptr inbounds [30 x [30 x i8]], [30 x [30 x i8]]* %3, i64 0, i64 %55
  %57 = load i32, i32* %8, align 4
  %58 = sext i32 %57 to i64
  %59 = getelementptr inbounds [30 x i8], [30 x i8]* %56, i64 0, i64 %58
  store i8 0, i8* %59, align 1
  %60 = load i32, i32* %7, align 4
  %61 = add nsw i32 %60, 1
  store i32 %61, i32* %7, align 4
  store i32 0, i32* %8, align 4
  br label %62

62:                                               ; preds = %53, %40
  br label %63

63:                                               ; preds = %62
  %64 = load i32, i32* %9, align 4
  %65 = add nsw i32 %64, 1
  store i32 %65, i32* %9, align 4
  br label %21

66:                                               ; preds = %21
  store i32 0, i32* %10, align 4
  br label %67

67:                                               ; preds = %88, %66
  %68 = load i32, i32* %10, align 4
  %69 = load i32, i32* %7, align 4
  %70 = add nsw i32 %69, 1
  %71 = icmp slt i32 %68, %70
  br i1 %71, label %72, label %91

72:                                               ; preds = %67
  %73 = load i32, i32* %10, align 4
  %74 = sext i32 %73 to i64
  %75 = getelementptr inbounds [30 x [30 x i8]], [30 x [30 x i8]]* %3, i64 0, i64 %74
  %76 = getelementptr inbounds [30 x i8], [30 x i8]* %75, i64 0, i64 0
  %77 = getelementptr inbounds [30 x i8], [30 x i8]* %4, i64 0, i64 0
  %78 = call i32 @strcmp(i8* %76, i8* %77) #4
  %79 = icmp eq i32 %78, 0
  br i1 %79, label %80, label %87

80:                                               ; preds = %72
  %81 = load i32, i32* %10, align 4
  %82 = sext i32 %81 to i64
  %83 = getelementptr inbounds [30 x [30 x i8]], [30 x [30 x i8]]* %3, i64 0, i64 %82
  %84 = getelementptr inbounds [30 x i8], [30 x i8]* %83, i64 0, i64 0
  %85 = getelementptr inbounds [30 x i8], [30 x i8]* %5, i64 0, i64 0
  %86 = call i8* @strcpy(i8* %84, i8* %85) #5
  br label %87

87:                                               ; preds = %80, %72
  br label %88

88:                                               ; preds = %87
  %89 = load i32, i32* %10, align 4
  %90 = add nsw i32 %89, 1
  store i32 %90, i32* %10, align 4
  br label %67

91:                                               ; preds = %67
  %92 = getelementptr inbounds [30 x [30 x i8]], [30 x [30 x i8]]* %3, i64 0, i64 0
  %93 = getelementptr inbounds [30 x i8], [30 x i8]* %92, i64 0, i64 0
  %94 = call i32 (i8*, ...) @printf(i8* getelementptr inbounds ([3 x i8], [3 x i8]* @.str, i64 0, i64 0), i8* %93)
  store i32 1, i32* %11, align 4
  br label %95

95:                                               ; preds = %106, %91
  %96 = load i32, i32* %11, align 4
  %97 = load i32, i32* %7, align 4
  %98 = add nsw i32 %97, 1
  %99 = icmp slt i32 %96, %98
  br i1 %99, label %100, label %109

100:                                              ; preds = %95
  %101 = load i32, i32* %11, align 4
  %102 = sext i32 %101 to i64
  %103 = getelementptr inbounds [30 x [30 x i8]], [30 x [30 x i8]]* %3, i64 0, i64 %102
  %104 = getelementptr inbounds [30 x i8], [30 x i8]* %103, i64 0, i64 0
  %105 = call i32 (i8*, ...) @printf(i8* getelementptr inbounds ([4 x i8], [4 x i8]* @.str.1, i64 0, i64 0), i8* %104)
  br label %106

106:                                              ; preds = %100
  %107 = load i32, i32* %11, align 4
  %108 = add nsw i32 %107, 1
  store i32 %108, i32* %11, align 4
  br label %95

109:                                              ; preds = %95
  ret i32 0
}

declare dso_local i32 @gets(...) #1

; Function Attrs: nounwind readonly
declare dso_local i64 @strlen(i8*) #2

; Function Attrs: nounwind readonly
declare dso_local i32 @strcmp(i8*, i8*) #2

; Function Attrs: nounwind
declare dso_local i8* @strcpy(i8*, i8*) #3

declare dso_local i32 @printf(i8*, ...) #1


!llvm.module.flags = !{!0}
!llvm.ident = !{!1}

!0 = !{i32 1, !"wchar_size", i32 4}
!1 = !{!"clang version 10.0.0-4ubuntu1 "}
